target datalayout = "e-m:e-p270:32:32-p271:32:32-p272:64:64-i64:64-i128:128-f80:128-n8:16:32:64-S128"
target triple = "x86_64-pc-linux-gnu"

%struct.UConverter = type { ptr, ptr, ptr, ptr, ptr, ptr, ptr, i32, i8, i8, i8, i8, i8, [7 x i8], i32, i32, i32, i32, i8, i8, i8, i8, i8, i8, i8, i8, [8 x i8], [32 x i8], [2 x i16], [2 x i16], [32 x i16], i32, [19 x i16], [31 x i8], i8, i8, i8, i32 }

; Function Attrs: inlinehint mustprogress nounwind uwtable
define internal noundef signext i8 @_ZL9U_FAILURE10UErrorCode(i32 noundef %0) #2 {
  %2 = alloca i32, align 4
  store i32 %0, ptr %2, align 4, !tbaa !9
  %3 = load i32, ptr %2, align 4, !tbaa !9
  %4 = icmp sgt i32 %3, 0
  %5 = zext i1 %4 to i8
  ret i8 %5
}

; Function Attrs: mustprogress uwtable
define i32 @ucnv_toUCountPending_77(ptr noundef %0, ptr noundef %1) #0 {
  %3 = alloca i32, align 4
  %4 = alloca ptr, align 8
  %5 = alloca ptr, align 8
  store ptr %0, ptr %4, align 8, !tbaa !11
  store ptr %1, ptr %5, align 8, !tbaa !8
  %6 = load ptr, ptr %5, align 8, !tbaa !8
  %7 = icmp eq ptr %6, null
  br i1 %7, label %13, label %8

8:                                                ; preds = %2
  %9 = load ptr, ptr %5, align 8, !tbaa !8
  %10 = load i32, ptr %9, align 4, !tbaa !9
  %11 = call noundef signext i8 @_ZL9U_FAILURE10UErrorCode(i32 noundef %10)
  %12 = icmp ne i8 %11, 0
  br i1 %12, label %13, label %14

13:                                               ; preds = %8, %2
  store i32 -1, ptr %3, align 4
  br label %56

14:                                               ; preds = %8
  %15 = load ptr, ptr %4, align 8, !tbaa !11
  %16 = icmp eq ptr %15, null
  br i1 %16, label %17, label %19

17:                                               ; preds = %14
  %18 = load ptr, ptr %5, align 8, !tbaa !8
  store i32 1, ptr %18, align 4, !tbaa !9
  store i32 -1, ptr %3, align 4
  br label %56

19:                                               ; preds = %14
  %20 = load ptr, ptr %4, align 8, !tbaa !11
  %21 = getelementptr inbounds nuw %struct.UConverter, ptr %20, i32 0, i32 35
  %22 = load i8, ptr %21, align 2, !tbaa !72
  %23 = sext i8 %22 to i32
  %24 = icmp sgt i32 %23, 0
  br i1 %24, label %25, label %30

25:                                               ; preds = %19
  %26 = load ptr, ptr %4, align 8, !tbaa !11
  %27 = getelementptr inbounds nuw %struct.UConverter, ptr %26, i32 0, i32 35
  %28 = load i8, ptr %27, align 2, !tbaa !72
  %29 = sext i8 %28 to i32
  store i32 %29, ptr %3, align 4
  br label %56

30:                                               ; preds = %19
  %31 = load ptr, ptr %4, align 8, !tbaa !11
  %32 = getelementptr inbounds nuw %struct.UConverter, ptr %31, i32 0, i32 35
  %33 = load i8, ptr %32, align 2, !tbaa !72
  %34 = sext i8 %33 to i32
  %35 = icmp slt i32 %34, 0
  br i1 %35, label %36, label %42

36:                                               ; preds = %30
  %37 = load ptr, ptr %4, align 8, !tbaa !11
  %38 = getelementptr inbounds nuw %struct.UConverter, ptr %37, i32 0, i32 35
  %39 = load i8, ptr %38, align 2, !tbaa !72
  %40 = sext i8 %39 to i32
  %41 = sub nsw i32 0, %40
  store i32 %41, ptr %3, align 4
  br label %56

42:                                               ; preds = %30
  %43 = load ptr, ptr %4, align 8, !tbaa !11
  %44 = getelementptr inbounds nuw %struct.UConverter, ptr %43, i32 0, i32 12
  %45 = load i8, ptr %44, align 8, !tbaa !69
  %46 = sext i8 %45 to i32
  %47 = icmp sgt i32 %46, 0
  br i1 %47, label %48, label %53

48:                                               ; preds = %42
  %49 = load ptr, ptr %4, align 8, !tbaa !11
  %50 = getelementptr inbounds nuw %struct.UConverter, ptr %49, i32 0, i32 12
  %51 = load i8, ptr %50, align 8, !tbaa !69
  %52 = sext i8 %51 to i32
  store i32 %52, ptr %3, align 4
  br label %56

53:                                               ; preds = %42
  br label %54

54:                                               ; preds = %53
  br label %55

55:                                               ; preds = %54
  store i32 0, ptr %3, align 4
  br label %56

56:                                               ; preds = %55, %48, %36, %25, %17, %13
  %57 = load i32, ptr %3, align 4
  ret i32 %57
}