; Function Attrs: mustprogress nofree norecurse nosync nounwind willreturn memory(argmem: readwrite) uwtable
define range(i32 -1, 129) i32 @ucnv_toUCountPending_77(ptr noundef readonly %0, ptr noundef %1) local_unnamed_addr #7 {
  %3 = icmp eq ptr %1, null
  br i1 %3, label %22, label %4

4:                                                ; preds = %2
  %5 = load i32, ptr %1, align 4, !tbaa !3
  %6 = icmp slt i32 %5, 1
  br i1 %6, label %7, label %22

7:                                                ; preds = %4
  %8 = icmp eq ptr %0, null
  br i1 %8, label %9, label %10

9:                                                ; preds = %7
  store i32 1, ptr %1, align 4, !tbaa !3
  br label %22

10:                                               ; preds = %7
  %11 = getelementptr inbounds nuw i8, ptr %0, i64 282
  %12 = load i8, ptr %11, align 2, !tbaa !69
  %13 = sext i8 %12 to i32
  %14 = icmp sgt i8 %12, 0
  br i1 %14, label %22, label %15

15:                                               ; preds = %10
  %16 = icmp slt i8 %12, 0
  br i1 %16, label %17, label %19

17:                                               ; preds = %15
  %18 = sub nsw i32 0, %13
  br label %22

19:                                               ; preds = %15
  %20 = getelementptr inbounds nuw i8, ptr %0, i64 64
  %21 = load i8, ptr %20, align 8, !tbaa !66
  %narrow = tail call i8 @llvm.smax.i8(i8 %21, i8 0)
  %spec.select = zext nneg i8 %narrow to i32
  br label %22

22:                                               ; preds = %19, %10, %2, %4, %17, %9
  %.0 = phi i32 [ -1, %9 ], [ %18, %17 ], [ -1, %4 ], [ -1, %2 ], [ %13, %10 ], [ %spec.select, %19 ]
  ret i32 %.0
}